target datalayout = "e-m:e-p270:32:32-p271:32:32-p272:64:64-i64:64-i128:128-f80:128-n8:16:32:64-S128"
target triple = "x86_64-pc-linux-gnu"

; Function Attrs: nounwind willreturn memory(none) uwtable
define dso_local zeroext i8 @lzma_mf_is_supported(i32 noundef %0) #5 {
  %2 = alloca i8, align 1
  %3 = alloca i32, align 4
  store i32 %0, ptr %3, align 4, !tbaa !26
  %4 = load i32, ptr %3, align 4, !tbaa !26
  switch i32 %4, label %10 [
    i32 3, label %5
    i32 4, label %6
    i32 18, label %7
    i32 19, label %8
    i32 20, label %9
  ]

5:                                                ; preds = %1
  store i8 1, ptr %2, align 1
  br label %11

6:                                                ; preds = %1
  store i8 1, ptr %2, align 1
  br label %11

7:                                                ; preds = %1
  store i8 1, ptr %2, align 1
  br label %11

8:                                                ; preds = %1
  store i8 1, ptr %2, align 1
  br label %11

9:                                                ; preds = %1
  store i8 1, ptr %2, align 1
  br label %11

10:                                               ; preds = %1
  store i8 0, ptr %2, align 1
  br label %11

11:                                               ; preds = %10, %9, %8, %7, %6, %5
  %12 = load i8, ptr %2, align 1
  ret i8 %12
}