; Function Attrs: mustprogress nofree norecurse nosync nounwind willreturn memory(none) uwtable
define dso_local zeroext range(i8 0, 2) i8 @lzma_mf_is_supported(i32 noundef %0) local_unnamed_addr #5 {
  switch i32 %0, label %2 [
    i32 3, label %3
    i32 4, label %3
    i32 18, label %3
    i32 19, label %3
    i32 20, label %3
  ]

2:                                                ; preds = %1
  br label %3

3:                                                ; preds = %1, %1, %1, %1, %1, %2
  %.0 = phi i8 [ 0, %2 ], [ 1, %1 ], [ 1, %1 ], [ 1, %1 ], [ 1, %1 ], [ 1, %1 ]
  ret i8 %.0
}